target datalayout = "e-m:e-p270:32:32-p271:32:32-p272:64:64-i64:64-i128:128-f80:128-n8:16:32:64-S128"
target triple = "x86_64-pc-linux-gnu"

%struct.mysql_conn_data = type { i16, i16, i16, i16, ptr, i8, i32, i32, i8, i8, i8, i8, i32, i32, ptr, ptr, i32, i32, i32, i64, %struct.my_metadata_list_t, i32, i32 }
%struct.my_metadata_list_t = type { i16, ptr, ptr, ptr }
%struct._packet_info = type { ptr, ptr, i32, i32, %struct.nstime_t, %struct.nstime_t, %struct.nstime_t, i8, ptr, ptr, ptr, ptr, %struct._address, %struct._address, %struct._address, %struct._address, %struct._address, %struct._address, i32, ptr, i8, [3 x i8], %struct.anon, i32, i32, i32, i32, ptr, i8, ptr, ptr, i16, i16, i32, i32, i16, i32, i32, ptr, ptr, ptr, i8, i8, i16, i16, i16, i32, i16, i16, ptr, ptr, ptr, ptr, ptr, i32, i32 }
%struct.nstime_t = type { i64, i32 }
%struct._address = type { i32, i32, ptr, ptr }
%struct.anon = type { i8, [3 x i8] }
%struct._frame_data = type <{ i32, i32, i32, i32, i32, [4 x i8], i64, ptr, ptr, ptr, i8, i16, [5 x i8], %struct.nstime_t, %struct.nstime_t, i32, i32 }>

@hf_mysql_sha2_auth = internal global i32 0, align 4
@.str.1298 = private unnamed_addr constant [23 x i8] c"Caching_sha2_password \00", align 1
@.str.1299 = private unnamed_addr constant [19 x i8] c"request_public_key\00", align 1
@.str.1300 = private unnamed_addr constant [18 x i8] c"fast_auth_success\00", align 1
@.str.1301 = private unnamed_addr constant [28 x i8] c"perform_full_authentication\00", align 1
@.str.1302 = private unnamed_addr constant [8 x i8] c"unknown\00", align 1

; Function Attrs: nounwind null_pointer_is_valid sspstrong uwtable
define internal void @mysql_set_conn_state(ptr noundef %0, ptr noundef %1, i32 noundef %2) #6 {
  %4 = alloca ptr, align 8
  %5 = alloca ptr, align 8
  %6 = alloca i32, align 4
  store ptr %0, ptr %4, align 8
  store ptr %1, ptr %5, align 8
  store i32 %2, ptr %6, align 4
  %7 = load ptr, ptr %4, align 8
  %8 = getelementptr inbounds nuw %struct._packet_info, ptr %7, i32 0, i32 8
  %9 = load ptr, ptr %8, align 8
  %10 = getelementptr inbounds nuw %struct._frame_data, ptr %9, i32 0, i32 11
  %11 = load i16, ptr %10, align 1
  %12 = lshr i16 %11, 3
  %13 = and i16 %12, 1
  %14 = zext i16 %13 to i32
  %15 = icmp ne i32 %14, 0
  br i1 %15, label %20, label %16

16:                                               ; preds = %3
  %17 = load i32, ptr %6, align 4
  %18 = load ptr, ptr %5, align 8
  %19 = getelementptr inbounds nuw %struct.mysql_conn_data, ptr %18, i32 0, i32 16
  store i32 %17, ptr %19, align 8
  br label %20

20:                                               ; preds = %16, %3
  ret void
}

; Function Attrs: null_pointer_is_valid sspstrong uwtable
define internal i32 @mysql_dissect_auth_sha2(ptr noundef %0, ptr noundef %1, i32 noundef %2, ptr noundef %3, ptr noundef %4) #0 {
  %6 = alloca ptr, align 8
  %7 = alloca ptr, align 8
  %8 = alloca i32, align 4
  %9 = alloca ptr, align 8
  %10 = alloca ptr, align 8
  %11 = alloca ptr, align 8
  %12 = alloca i8, align 1
  store ptr %0, ptr %6, align 8
  store ptr %1, ptr %7, align 8
  store i32 %2, ptr %8, align 4
  store ptr %3, ptr %9, align 8
  store ptr %4, ptr %10, align 8
  %13 = load ptr, ptr %7, align 8
  %14 = getelementptr inbounds nuw %struct._packet_info, ptr %13, i32 0, i32 1
  %15 = load ptr, ptr %14, align 8
  call void @col_set_str(ptr noundef %15, i32 noundef 25, ptr noundef @.str.1298)
  %16 = load ptr, ptr %7, align 8
  %17 = getelementptr inbounds nuw %struct._packet_info, ptr %16, i32 0, i32 1
  %18 = load ptr, ptr %17, align 8
  call void @col_set_fence(ptr noundef %18, i32 noundef 25)
  %19 = load ptr, ptr %6, align 8
  %20 = load i32, ptr %8, align 4
  %21 = call i32 @tvb_reported_length_remaining(ptr noundef %19, i32 noundef %20)
  %22 = icmp eq i32 %21, 2
  br i1 %22, label %23, label %26

23:                                               ; preds = %5
  %24 = load i32, ptr %8, align 4
  %25 = add i32 %24, 1
  store i32 %25, ptr %8, align 4
  br label %26

26:                                               ; preds = %23, %5
  call void @llvm.lifetime.start.p0(i64 8, ptr %11) #11
  call void @llvm.lifetime.start.p0(i64 1, ptr %12) #11
  %27 = load ptr, ptr %6, align 8
  %28 = load i32, ptr %8, align 4
  %29 = call zeroext i8 @tvb_get_uint8(ptr noundef %27, i32 noundef %28)
  store i8 %29, ptr %12, align 1
  %30 = load i8, ptr %12, align 1
  %31 = zext i8 %30 to i32
  switch i32 %31, label %39 [
    i32 2, label %32
    i32 3, label %35
    i32 4, label %36
  ]

32:                                               ; preds = %26
  store ptr @.str.1299, ptr %11, align 8
  %33 = load ptr, ptr %7, align 8
  %34 = load ptr, ptr %10, align 8
  call void @mysql_set_conn_state(ptr noundef %33, ptr noundef %34, i32 noundef 19)
  br label %40

35:                                               ; preds = %26
  store ptr @.str.1300, ptr %11, align 8
  br label %40

36:                                               ; preds = %26
  store ptr @.str.1301, ptr %11, align 8
  %37 = load ptr, ptr %7, align 8
  %38 = load ptr, ptr %10, align 8
  call void @mysql_set_conn_state(ptr noundef %37, ptr noundef %38, i32 noundef 18)
  br label %40

39:                                               ; preds = %26
  store ptr @.str.1302, ptr %11, align 8
  br label %40

40:                                               ; preds = %39, %36, %35, %32
  %41 = load ptr, ptr %7, align 8
  %42 = getelementptr inbounds nuw %struct._packet_info, ptr %41, i32 0, i32 1
  %43 = load ptr, ptr %42, align 8
  %44 = load ptr, ptr %11, align 8
  call void @col_append_str(ptr noundef %43, i32 noundef 25, ptr noundef %44)
  %45 = load ptr, ptr %9, align 8
  %46 = load i32, ptr @hf_mysql_sha2_auth, align 4
  %47 = load ptr, ptr %6, align 8
  %48 = load i32, ptr %8, align 4
  %49 = load ptr, ptr %11, align 8
  %50 = call ptr @proto_tree_add_string(ptr noundef %45, i32 noundef %46, ptr noundef %47, i32 noundef %48, i32 noundef 1, ptr noundef %49)
  %51 = load i32, ptr %8, align 4
  %52 = add i32 %51, 1
  store i32 %52, ptr %8, align 4
  %53 = load i32, ptr %8, align 4
  %54 = load ptr, ptr %6, align 8
  %55 = load i32, ptr %8, align 4
  %56 = call i32 @tvb_reported_length_remaining(ptr noundef %54, i32 noundef %55)
  %57 = add i32 %53, %56
  call void @llvm.lifetime.end.p0(i64 1, ptr %12) #11
  call void @llvm.lifetime.end.p0(i64 8, ptr %11) #11
  ret i32 %57
}