; Function Attrs: null_pointer_is_valid sspstrong uwtable
define internal fastcc i32 @mysql_dissect_auth_sha2(ptr noundef %0, ptr noundef readonly captures(none) %1, i32 noundef %2, ptr noundef %3, ptr noundef writeonly captures(none) %4) unnamed_addr #0 {
  %6 = getelementptr inbounds nuw i8, ptr %1, i64 8
  %7 = load ptr, ptr %6, align 8
  tail call void @col_set_str(ptr noundef %7, i32 noundef 25, ptr noundef nonnull @.str.1298)
  %8 = load ptr, ptr %6, align 8
  tail call void @col_set_fence(ptr noundef %8, i32 noundef 25)
  %9 = tail call i32 @tvb_reported_length_remaining(ptr noundef %0, i32 noundef %2)
  %10 = icmp eq i32 %9, 2
  %11 = zext i1 %10 to i32
  %spec.select = add i32 %2, %11
  %12 = tail call zeroext i8 @tvb_get_uint8(ptr noundef %0, i32 noundef %spec.select)
  switch i8 %12, label %25 [
    i8 2, label %13
    i8 3, label %mysql_set_conn_state.exit
    i8 4, label %19
  ]

13:                                               ; preds = %5
  %14 = getelementptr i8, ptr %1, i64 80
  %.val22 = load ptr, ptr %14, align 8
  %15 = getelementptr i8, ptr %.val22, i64 57
  %.val22.val = load i16, ptr %15, align 1
  %16 = and i16 %.val22.val, 8
  %.not.i = icmp eq i16 %16, 0
  br i1 %.not.i, label %17, label %mysql_set_conn_state.exit

17:                                               ; preds = %13
  %18 = getelementptr inbounds nuw i8, ptr %4, i64 56
  store i32 19, ptr %18, align 8
  br label %mysql_set_conn_state.exit

19:                                               ; preds = %5
  %20 = getelementptr i8, ptr %1, i64 80
  %.val = load ptr, ptr %20, align 8
  %21 = getelementptr i8, ptr %.val, i64 57
  %.val.val = load i16, ptr %21, align 1
  %22 = and i16 %.val.val, 8
  %.not.i23 = icmp eq i16 %22, 0
  br i1 %.not.i23, label %23, label %mysql_set_conn_state.exit

23:                                               ; preds = %19
  %24 = getelementptr inbounds nuw i8, ptr %4, i64 56
  store i32 18, ptr %24, align 8
  br label %mysql_set_conn_state.exit

25:                                               ; preds = %5
  br label %mysql_set_conn_state.exit

mysql_set_conn_state.exit:                        ; preds = %23, %19, %17, %13, %5, %25
  %.021 = phi ptr [ @.str.1302, %25 ], [ @.str.1300, %5 ], [ @.str.1299, %13 ], [ @.str.1299, %17 ], [ @.str.1301, %19 ], [ @.str.1301, %23 ]
  %26 = load ptr, ptr %6, align 8
  tail call void @col_append_str(ptr noundef %26, i32 noundef 25, ptr noundef nonnull %.021)
  %27 = load i32, ptr @hf_mysql_sha2_auth, align 4
  %28 = tail call ptr @proto_tree_add_string(ptr noundef %3, i32 noundef %27, ptr noundef %0, i32 noundef %spec.select, i32 noundef 1, ptr noundef nonnull %.021)
  %29 = add i32 %spec.select, 1
  %30 = tail call i32 @tvb_reported_length_remaining(ptr noundef %0, i32 noundef %29)
  %31 = add i32 %30, %29
  ret i32 %31
}